; Function Attrs: nounwind uwtable
define internal noundef i32 @FileInStream_fmap_Read(ptr nocapture noundef %0, ptr nocapture noundef writeonly %1, ptr nocapture noundef %2) #0 {
  %4 = load i64, ptr %2, align 8
  %5 = icmp eq i64 %4, 0
  br i1 %5, label %24, label %6

6:                                                ; preds = %3
  %7 = getelementptr inbounds i8, ptr %0, i64 32
  %8 = load ptr, ptr %7, align 8
  %9 = getelementptr inbounds i8, ptr %0, i64 16
  %10 = load i64, ptr %9, align 8
  %11 = getelementptr inbounds i8, ptr %8, i64 88
  %12 = load i64, ptr %11, align 8
  %.not.i = icmp eq i64 %12, %10
  br i1 %.not.i, label %fmap_readn.exit, label %13

13:                                               ; preds = %6
  %14 = icmp ult i64 %12, %10
  br i1 %14, label %.sink.split, label %15

15:                                               ; preds = %13
  %16 = sub i64 %12, %10
  %spec.select.i = tail call i64 @llvm.umin.i64(i64 %16, i64 %4)
  %17 = getelementptr inbounds i8, ptr %8, i64 104
  %18 = load ptr, ptr %17, align 8
  %19 = tail call ptr %18(ptr noundef nonnull %8, i64 noundef %10, i64 noundef %spec.select.i, i32 noundef 0) #6
  %.not26.i = icmp eq ptr %19, null
  br i1 %.not26.i, label %.sink.split, label %20

20:                                               ; preds = %15
  tail call void @llvm.memcpy.p0.p0.i64(ptr align 1 %1, ptr nonnull align 1 %19, i64 %spec.select.i, i1 false)
  %21 = icmp ult i64 %spec.select.i, 2147483648
  br i1 %21, label %.fmap_readn.exit_crit_edge, label %.sink.split

.fmap_readn.exit_crit_edge:                       ; preds = %20
  %.pre = load i64, ptr %9, align 8
  br label %fmap_readn.exit

fmap_readn.exit:                                  ; preds = %.fmap_readn.exit_crit_edge, %6
  %22 = phi i64 [ %10, %6 ], [ %.pre, %.fmap_readn.exit_crit_edge ]
  %.0.i = phi i64 [ 0, %6 ], [ %spec.select.i, %.fmap_readn.exit_crit_edge ]
  %23 = add i64 %22, %.0.i
  store i64 %23, ptr %9, align 8
  br label %.sink.split

.sink.split:                                      ; preds = %15, %13, %20, %fmap_readn.exit
  %.0.i.sink = phi i64 [ %.0.i, %fmap_readn.exit ], [ 0, %20 ], [ 0, %13 ], [ 0, %15 ]
  %.0.ph = phi i32 [ 0, %fmap_readn.exit ], [ 8, %20 ], [ 8, %13 ], [ 8, %15 ]
  store i64 %.0.i.sink, ptr %2, align 8
  br label %24

24:                                               ; preds = %.sink.split, %3
  %.0 = phi i32 [ 0, %3 ], [ %.0.ph, %.sink.split ]
  ret i32 %.0
}